target datalayout = "e-m:e-p270:32:32-p271:32:32-p272:64:64-i64:64-i128:128-f80:128-n8:16:32:64-S128"
target triple = "x86_64-pc-linux-gnu"

%struct.Cof_Man_t_ = type { ptr, ptr, ptr, i32, i32, i32, ptr, i32, ptr, i32 }
%struct.Cof_Obj_t_ = type { i32, i32, i32, i32, i32, i32, [0 x %struct.Cof_Fan_t_] }
%struct.Cof_Fan_t_ = type { i32 }

; Function Attrs: inlinehint nounwind uwtable
define internal ptr @Cof_ObjFanout(ptr noundef %0, i32 noundef %1) #3 {
  %3 = alloca ptr, align 8
  %4 = alloca i32, align 4
  store ptr %0, ptr %3, align 8, !tbaa !42
  store i32 %1, ptr %4, align 4, !tbaa !8
  %5 = load ptr, ptr %3, align 8, !tbaa !42
  %6 = load ptr, ptr %3, align 8, !tbaa !42
  %7 = getelementptr inbounds nuw %struct.Cof_Obj_t_, ptr %6, i32 0, i32 6
  %8 = load ptr, ptr %3, align 8, !tbaa !42
  %9 = load i32, ptr %8, align 4
  %10 = lshr i32 %9, 4
  %11 = and i32 %10, 15
  %12 = load i32, ptr %4, align 4, !tbaa !8
  %13 = add nsw i32 %11, %12
  %14 = sext i32 %13 to i64
  %15 = getelementptr inbounds [0 x %struct.Cof_Fan_t_], ptr %7, i64 0, i64 %14
  %16 = load i32, ptr %15, align 4
  %17 = and i32 %16, 2147483647
  %18 = sext i32 %17 to i64
  %19 = getelementptr inbounds i32, ptr %5, i64 %18
  ret ptr %19
}

; Function Attrs: inlinehint nounwind uwtable
define internal i32 @Cof_ObjIsCo(ptr noundef %0) #3 {
  %2 = alloca ptr, align 8
  store ptr %0, ptr %2, align 8, !tbaa !42
  %3 = load ptr, ptr %2, align 8, !tbaa !42
  %4 = load i32, ptr %3, align 4
  %5 = and i32 %4, 1
  %6 = icmp ne i32 %5, 0
  br i1 %6, label %7, label %13

7:                                                ; preds = %1
  %8 = load ptr, ptr %2, align 8, !tbaa !42
  %9 = load i32, ptr %8, align 4
  %10 = lshr i32 %9, 4
  %11 = and i32 %10, 15
  %12 = icmp eq i32 %11, 1
  br label %13

13:                                               ; preds = %7, %1
  %14 = phi i1 [ false, %1 ], [ %12, %7 ]
  %15 = zext i1 %14 to i32
  ret i32 %15
}

; Function Attrs: inlinehint nounwind uwtable
define internal void @Cof_ObjSetTravIdCurrent(ptr noundef %0, ptr noundef %1) #3 {
  %3 = alloca ptr, align 8
  %4 = alloca ptr, align 8
  store ptr %0, ptr %3, align 8, !tbaa !10
  store ptr %1, ptr %4, align 8, !tbaa !42
  %5 = load ptr, ptr %3, align 8, !tbaa !10
  %6 = getelementptr inbounds nuw %struct.Cof_Man_t_, ptr %5, i32 0, i32 5
  %7 = load i32, ptr %6, align 8, !tbaa !63
  %8 = load ptr, ptr %4, align 8, !tbaa !42
  %9 = getelementptr inbounds nuw %struct.Cof_Obj_t_, ptr %8, i32 0, i32 2
  store i32 %7, ptr %9, align 4, !tbaa !46
  ret void
}

; Function Attrs: inlinehint nounwind uwtable
define internal i32 @Cof_ObjIsTravIdCurrent(ptr noundef %0, ptr noundef %1) #3 {
  %3 = alloca ptr, align 8
  %4 = alloca ptr, align 8
  store ptr %0, ptr %3, align 8, !tbaa !10
  store ptr %1, ptr %4, align 8, !tbaa !42
  %5 = load ptr, ptr %4, align 8, !tbaa !42
  %6 = getelementptr inbounds nuw %struct.Cof_Obj_t_, ptr %5, i32 0, i32 2
  %7 = load i32, ptr %6, align 4, !tbaa !46
  %8 = load ptr, ptr %3, align 8, !tbaa !10
  %9 = getelementptr inbounds nuw %struct.Cof_Man_t_, ptr %8, i32 0, i32 5
  %10 = load i32, ptr %9, align 8, !tbaa !63
  %11 = icmp eq i32 %7, %10
  %12 = zext i1 %11 to i32
  ret i32 %12
}

; Function Attrs: nounwind uwtable
define i32 @Cof_ManTfoSize_rec(ptr noundef %0, ptr noundef %1) #0 {
  %3 = alloca i32, align 4
  %4 = alloca ptr, align 8
  %5 = alloca ptr, align 8
  %6 = alloca ptr, align 8
  %7 = alloca i32, align 4
  %8 = alloca i32, align 4
  %9 = alloca i32, align 4
  store ptr %0, ptr %4, align 8, !tbaa !10
  store ptr %1, ptr %5, align 8, !tbaa !42
  call void @llvm.lifetime.start.p0(i64 8, ptr %6) #13
  call void @llvm.lifetime.start.p0(i64 4, ptr %7) #13
  call void @llvm.lifetime.start.p0(i64 4, ptr %8) #13
  store i32 0, ptr %8, align 4, !tbaa !8
  %10 = load ptr, ptr %4, align 8, !tbaa !10
  %11 = load ptr, ptr %5, align 8, !tbaa !42
  %12 = call i32 @Cof_ObjIsTravIdCurrent(ptr noundef %10, ptr noundef %11)
  %13 = icmp ne i32 %12, 0
  br i1 %13, label %14, label %15

14:                                               ; preds = %2
  store i32 0, ptr %3, align 4
  store i32 1, ptr %9, align 4
  br label %48

15:                                               ; preds = %2
  %16 = load ptr, ptr %4, align 8, !tbaa !10
  %17 = load ptr, ptr %5, align 8, !tbaa !42
  call void @Cof_ObjSetTravIdCurrent(ptr noundef %16, ptr noundef %17)
  %18 = load ptr, ptr %5, align 8, !tbaa !42
  %19 = call i32 @Cof_ObjIsCo(ptr noundef %18)
  %20 = icmp ne i32 %19, 0
  br i1 %20, label %21, label %22

21:                                               ; preds = %15
  store i32 0, ptr %3, align 4
  store i32 1, ptr %9, align 4
  br label %48

22:                                               ; preds = %15
  store i32 0, ptr %7, align 4, !tbaa !8
  br label %23

23:                                               ; preds = %42, %22
  %24 = load i32, ptr %7, align 4, !tbaa !8
  %25 = load ptr, ptr %5, align 8, !tbaa !42
  %26 = load i32, ptr %25, align 4
  %27 = lshr i32 %26, 8
  %28 = icmp ult i32 %24, %27
  br i1 %28, label %29, label %34

29:                                               ; preds = %23
  %30 = load ptr, ptr %5, align 8, !tbaa !42
  %31 = load i32, ptr %7, align 4, !tbaa !8
  %32 = call ptr @Cof_ObjFanout(ptr noundef %30, i32 noundef %31)
  store ptr %32, ptr %6, align 8, !tbaa !42
  %33 = icmp ne ptr %32, null
  br label %34

34:                                               ; preds = %29, %23
  %35 = phi i1 [ false, %23 ], [ %33, %29 ]
  br i1 %35, label %36, label %45

36:                                               ; preds = %34
  %37 = load ptr, ptr %4, align 8, !tbaa !10
  %38 = load ptr, ptr %6, align 8, !tbaa !42
  %39 = call i32 @Cof_ManTfoSize_rec(ptr noundef %37, ptr noundef %38)
  %40 = load i32, ptr %8, align 4, !tbaa !8
  %41 = add i32 %40, %39
  store i32 %41, ptr %8, align 4, !tbaa !8
  br label %42

42:                                               ; preds = %36
  %43 = load i32, ptr %7, align 4, !tbaa !8
  %44 = add i32 %43, 1
  store i32 %44, ptr %7, align 4, !tbaa !8
  br label %23, !llvm.loop !62

45:                                               ; preds = %34
  %46 = load i32, ptr %8, align 4, !tbaa !8
  %47 = add i32 1, %46
  store i32 %47, ptr %3, align 4
  store i32 1, ptr %9, align 4
  br label %48

48:                                               ; preds = %45, %21, %14
  call void @llvm.lifetime.end.p0(i64 4, ptr %8) #13
  call void @llvm.lifetime.end.p0(i64 4, ptr %7) #13
  call void @llvm.lifetime.end.p0(i64 8, ptr %6) #13
  %49 = load i32, ptr %3, align 4
  ret i32 %49
}