; Function Attrs: nofree nosync nounwind memory(argmem: readwrite) uwtable
define i32 @Cof_ManTfoSize_rec(ptr noundef readonly captures(none) %0, ptr noundef captures(none) %1) local_unnamed_addr #6 {
  %3 = getelementptr i8, ptr %0, i64 32
  %.val = load i32, ptr %3, align 8, !tbaa !54
  %4 = getelementptr i8, ptr %1, i64 8
  %.val19 = load i32, ptr %4, align 4, !tbaa !46
  %.not = icmp eq i32 %.val19, %.val
  br i1 %.not, label %.critedge, label %5

5:                                                ; preds = %2
  store i32 %.val, ptr %4, align 4, !tbaa !46
  %.val21 = load i32, ptr %1, align 4
  %6 = and i32 %.val21, 241
  %narrow.i.not = icmp eq i32 %6, 17
  br i1 %narrow.i.not, label %.critedge, label %.preheader

.preheader:                                       ; preds = %5
  %.not24 = icmp ult i32 %.val21, 256
  br i1 %.not24, label %.critedge, label %.lr.ph

.lr.ph:                                           ; preds = %.preheader
  %7 = getelementptr inbounds nuw i8, ptr %1, i64 24
  br label %8

8:                                                ; preds = %.lr.ph, %8
  %9 = phi i32 [ %.val21, %.lr.ph ], [ %22, %8 ]
  %.023 = phi i32 [ 0, %.lr.ph ], [ %20, %8 ]
  %.01422 = phi i32 [ 0, %.lr.ph ], [ %21, %8 ]
  %10 = lshr i32 %9, 4
  %11 = and i32 %10, 15
  %12 = add nuw nsw i32 %11, %.01422
  %13 = zext nneg i32 %12 to i64
  %14 = getelementptr inbounds nuw [0 x %struct.Cof_Fan_t_], ptr %7, i64 0, i64 %13
  %15 = load i32, ptr %14, align 4
  %16 = and i32 %15, 2147483647
  %17 = zext nneg i32 %16 to i64
  %18 = getelementptr inbounds nuw i32, ptr %1, i64 %17
  %19 = tail call i32 @Cof_ManTfoSize_rec(ptr noundef %0, ptr noundef nonnull %18)
  %20 = add i32 %19, %.023
  %21 = add nuw nsw i32 %.01422, 1
  %22 = load i32, ptr %1, align 4
  %23 = lshr i32 %22, 8
  %24 = icmp samesign ult i32 %21, %23
  br i1 %24, label %8, label %.critedge.loopexit, !llvm.loop !55

.critedge.loopexit:                               ; preds = %8
  %25 = add i32 %20, 1
  br label %.critedge

.critedge:                                        ; preds = %.preheader, %.critedge.loopexit, %5, %2
  %.015 = phi i32 [ 0, %2 ], [ 0, %5 ], [ 1, %.preheader ], [ %25, %.critedge.loopexit ]
  ret i32 %.015
}